; Function Attrs: null_pointer_is_valid sspstrong uwtable
define zeroext i1 @tvb_offset_exists(ptr noundef readonly captures(address_is_null) %0, i32 noundef %1) local_unnamed_addr #0 {
  %.not = icmp eq ptr %0, null
  br i1 %.not, label %7, label %3

3:                                                ; preds = %2
  %4 = getelementptr inbounds nuw i8, ptr %0, i64 16
  %5 = load i8, ptr %4, align 8, !range !9, !noundef !10
  %6 = trunc nuw i8 %5 to i1
  br i1 %6, label %8, label %7

7:                                                ; preds = %3, %2
  tail call void (ptr, ...) @proto_report_dissector_bug(ptr noundef nonnull @.str, ptr noundef nonnull @.str.1, i32 noundef 731, ptr noundef nonnull @.str.5) #18
  unreachable

8:                                                ; preds = %3
  %9 = icmp sgt i32 %1, -1
  br i1 %9, label %10, label %13

10:                                               ; preds = %8
  %11 = getelementptr inbounds nuw i8, ptr %0, i64 40
  %12 = load i32, ptr %11, align 8
  %.not32.i = icmp ugt i32 %1, %12
  br i1 %.not32.i, label %compute_offset.exit.thread, label %compute_offset.exit, !prof !11

13:                                               ; preds = %8
  %14 = sub i32 0, %1
  %15 = getelementptr inbounds nuw i8, ptr %0, i64 40
  %16 = load i32, ptr %15, align 8
  %.not.i = icmp ult i32 %16, %14
  br i1 %.not.i, label %compute_offset.exit.thread, label %17, !prof !11

17:                                               ; preds = %13
  %18 = add i32 %16, %1
  br label %compute_offset.exit

compute_offset.exit:                              ; preds = %17, %10
  %19 = phi i32 [ %16, %17 ], [ %12, %10 ]
  %.08 = phi i32 [ %18, %17 ], [ %1, %10 ]
  %20 = icmp ult i32 %.08, %19
  br label %compute_offset.exit.thread

compute_offset.exit.thread:                       ; preds = %13, %10, %compute_offset.exit
  %.0 = phi i1 [ %20, %compute_offset.exit ], [ false, %10 ], [ false, %13 ]
  ret i1 %.0
}